; Function Attrs: nounwind uwtable
define noalias noundef ptr @Dar_ManChoiceSynthesis(ptr noundef %0, i32 noundef %1, i32 noundef %2, i32 noundef %3, i32 noundef %4) local_unnamed_addr #0 {
Vec_PtrPush.exit31:
  %5 = tail call noalias dereferenceable_or_null(16) ptr @malloc(i64 noundef 16) #14
  %6 = getelementptr inbounds nuw i8, ptr %5, i64 4
  store i32 8, ptr %5, align 8, !tbaa !34
  %7 = tail call noalias dereferenceable_or_null(64) ptr @malloc(i64 noundef 64) #14
  %8 = getelementptr inbounds nuw i8, ptr %5, i64 8
  store ptr %7, ptr %8, align 8, !tbaa !36
  %9 = tail call ptr @Aig_ManDupDfs(ptr noundef %0) #13
  store ptr %9, ptr %7, align 8, !tbaa !37
  %10 = tail call ptr @Dar_ManCompress(ptr noundef %9, i32 noundef %1, i32 noundef %2, i32 noundef %3, i32 noundef %4)
  %11 = getelementptr inbounds nuw i8, ptr %7, i64 8
  store ptr %10, ptr %11, align 8, !tbaa !37
  %12 = tail call ptr @Dar_ManCompress2(ptr noundef %10, i32 noundef %1, i32 noundef %2, i32 noundef 1, i32 noundef %3, i32 noundef %4)
  store i32 3, ptr %6, align 4, !tbaa !38
  %13 = getelementptr inbounds nuw i8, ptr %7, i64 16
  store ptr %12, ptr %13, align 8, !tbaa !37
  ret ptr %5
}